target datalayout = "e-m:e-p270:32:32-p271:32:32-p272:64:64-i64:64-i128:128-f80:128-n8:16:32:64-S128"
target triple = "x86_64-pc-linux-gnu"

; Function Attrs: nounwind uwtable
define internal i32 @crl_extension_match(ptr noundef %0, ptr noundef %1, i32 noundef %2) #0 {
  %4 = alloca i32, align 4
  %5 = alloca ptr, align 8
  %6 = alloca ptr, align 8
  %7 = alloca i32, align 4
  %8 = alloca ptr, align 8
  %9 = alloca ptr, align 8
  %10 = alloca i32, align 4
  %11 = alloca i32, align 4
  store ptr %0, ptr %5, align 8, !tbaa !94
  store ptr %1, ptr %6, align 8, !tbaa !94
  store i32 %2, ptr %7, align 4, !tbaa !8
  call void @llvm.lifetime.start.p0(i64 8, ptr %8) #8
  store ptr null, ptr %8, align 8, !tbaa !81
  call void @llvm.lifetime.start.p0(i64 8, ptr %9) #8
  store ptr null, ptr %9, align 8, !tbaa !81
  call void @llvm.lifetime.start.p0(i64 4, ptr %10) #8
  %12 = load ptr, ptr %5, align 8, !tbaa !94
  %13 = load i32, ptr %7, align 4, !tbaa !8
  %14 = call i32 @X509_CRL_get_ext_by_NID(ptr noundef %12, i32 noundef %13, i32 noundef -1)
  store i32 %14, ptr %10, align 4, !tbaa !8
  %15 = load i32, ptr %10, align 4, !tbaa !8
  %16 = icmp sge i32 %15, 0
  br i1 %16, label %17, label %29

17:                                               ; preds = %3
  %18 = load ptr, ptr %5, align 8, !tbaa !94
  %19 = load i32, ptr %7, align 4, !tbaa !8
  %20 = load i32, ptr %10, align 4, !tbaa !8
  %21 = call i32 @X509_CRL_get_ext_by_NID(ptr noundef %18, i32 noundef %19, i32 noundef %20)
  %22 = icmp ne i32 %21, -1
  br i1 %22, label %23, label %24

23:                                               ; preds = %17
  store i32 0, ptr %4, align 4
  store i32 1, ptr %11, align 4
  br label %67

24:                                               ; preds = %17
  %25 = load ptr, ptr %5, align 8, !tbaa !94
  %26 = load i32, ptr %10, align 4, !tbaa !8
  %27 = call ptr @X509_CRL_get_ext(ptr noundef %25, i32 noundef %26)
  %28 = call ptr @X509_EXTENSION_get_data(ptr noundef %27)
  store ptr %28, ptr %8, align 8, !tbaa !81
  br label %29

29:                                               ; preds = %24, %3
  %30 = load ptr, ptr %6, align 8, !tbaa !94
  %31 = load i32, ptr %7, align 4, !tbaa !8
  %32 = call i32 @X509_CRL_get_ext_by_NID(ptr noundef %30, i32 noundef %31, i32 noundef -1)
  store i32 %32, ptr %10, align 4, !tbaa !8
  %33 = load i32, ptr %10, align 4, !tbaa !8
  %34 = icmp sge i32 %33, 0
  br i1 %34, label %35, label %47

35:                                               ; preds = %29
  %36 = load ptr, ptr %6, align 8, !tbaa !94
  %37 = load i32, ptr %7, align 4, !tbaa !8
  %38 = load i32, ptr %10, align 4, !tbaa !8
  %39 = call i32 @X509_CRL_get_ext_by_NID(ptr noundef %36, i32 noundef %37, i32 noundef %38)
  %40 = icmp ne i32 %39, -1
  br i1 %40, label %41, label %42

41:                                               ; preds = %35
  store i32 0, ptr %4, align 4
  store i32 1, ptr %11, align 4
  br label %67

42:                                               ; preds = %35
  %43 = load ptr, ptr %6, align 8, !tbaa !94
  %44 = load i32, ptr %10, align 4, !tbaa !8
  %45 = call ptr @X509_CRL_get_ext(ptr noundef %43, i32 noundef %44)
  %46 = call ptr @X509_EXTENSION_get_data(ptr noundef %45)
  store ptr %46, ptr %9, align 8, !tbaa !81
  br label %47

47:                                               ; preds = %42, %29
  %48 = load ptr, ptr %8, align 8, !tbaa !81
  %49 = icmp eq ptr %48, null
  br i1 %49, label %50, label %54

50:                                               ; preds = %47
  %51 = load ptr, ptr %9, align 8, !tbaa !81
  %52 = icmp eq ptr %51, null
  br i1 %52, label %53, label %54

53:                                               ; preds = %50
  store i32 1, ptr %4, align 4
  store i32 1, ptr %11, align 4
  br label %67

54:                                               ; preds = %50, %47
  %55 = load ptr, ptr %8, align 8, !tbaa !81
  %56 = icmp eq ptr %55, null
  br i1 %56, label %60, label %57

57:                                               ; preds = %54
  %58 = load ptr, ptr %9, align 8, !tbaa !81
  %59 = icmp eq ptr %58, null
  br i1 %59, label %60, label %61

60:                                               ; preds = %57, %54
  store i32 0, ptr %4, align 4
  store i32 1, ptr %11, align 4
  br label %67

61:                                               ; preds = %57
  %62 = load ptr, ptr %8, align 8, !tbaa !81
  %63 = load ptr, ptr %9, align 8, !tbaa !81
  %64 = call i32 @ASN1_OCTET_STRING_cmp(ptr noundef %62, ptr noundef %63)
  %65 = icmp eq i32 %64, 0
  %66 = zext i1 %65 to i32
  store i32 %66, ptr %4, align 4
  store i32 1, ptr %11, align 4
  br label %67

67:                                               ; preds = %61, %60, %53, %41, %23
  call void @llvm.lifetime.end.p0(i64 4, ptr %10) #8
  call void @llvm.lifetime.end.p0(i64 8, ptr %9) #8
  call void @llvm.lifetime.end.p0(i64 8, ptr %8) #8
  %68 = load i32, ptr %4, align 4
  ret i32 %68
}